target datalayout = "e-m:e-p270:32:32-p271:32:32-p272:64:64-i64:64-i128:128-f80:128-n8:16:32:64-S128"
target triple = "x86_64-pc-linux-gnu"

%struct.RepeatInfo = type { i8, i32, i32, i32, i32, i32, i32, [2 x i32], i32, i32, i32, i32, i32 }
%struct.RepeatRingControl = type { i64, i16, i16 }

; Function Attrs: nounwind uwtable
define internal i32 @ringOccupancy(ptr noundef %0, i32 noundef %1) #0 {
  %3 = alloca i32, align 4
  %4 = alloca ptr, align 8
  %5 = alloca i32, align 4
  store ptr %0, ptr %4, align 8
  store i32 %1, ptr %5, align 4
  %6 = load ptr, ptr %4, align 8
  %7 = getelementptr inbounds nuw %struct.RepeatRingControl, ptr %6, i32 0, i32 2
  %8 = load i16, ptr %7, align 2
  %9 = zext i16 %8 to i32
  %10 = load ptr, ptr %4, align 8
  %11 = getelementptr inbounds nuw %struct.RepeatRingControl, ptr %10, i32 0, i32 1
  %12 = load i16, ptr %11, align 8
  %13 = zext i16 %12 to i32
  %14 = icmp sgt i32 %9, %13
  br i1 %14, label %15, label %25

15:                                               ; preds = %2
  %16 = load ptr, ptr %4, align 8
  %17 = getelementptr inbounds nuw %struct.RepeatRingControl, ptr %16, i32 0, i32 2
  %18 = load i16, ptr %17, align 2
  %19 = zext i16 %18 to i32
  %20 = load ptr, ptr %4, align 8
  %21 = getelementptr inbounds nuw %struct.RepeatRingControl, ptr %20, i32 0, i32 1
  %22 = load i16, ptr %21, align 8
  %23 = zext i16 %22 to i32
  %24 = sub nsw i32 %19, %23
  store i32 %24, ptr %3, align 4
  br label %37

25:                                               ; preds = %2
  %26 = load i32, ptr %5, align 4
  %27 = load ptr, ptr %4, align 8
  %28 = getelementptr inbounds nuw %struct.RepeatRingControl, ptr %27, i32 0, i32 1
  %29 = load i16, ptr %28, align 8
  %30 = zext i16 %29 to i32
  %31 = load ptr, ptr %4, align 8
  %32 = getelementptr inbounds nuw %struct.RepeatRingControl, ptr %31, i32 0, i32 2
  %33 = load i16, ptr %32, align 2
  %34 = zext i16 %33 to i32
  %35 = sub nsw i32 %30, %34
  %36 = sub i32 %26, %35
  store i32 %36, ptr %3, align 4
  br label %37

37:                                               ; preds = %25, %15
  %38 = load i32, ptr %3, align 4
  ret i32 %38
}

; Function Attrs: nounwind uwtable
define internal i64 @ringLastTop(ptr noundef %0, i32 noundef %1) #0 {
  %3 = alloca ptr, align 8
  %4 = alloca i32, align 4
  store ptr %0, ptr %3, align 8
  store i32 %1, ptr %4, align 4
  %5 = load ptr, ptr %3, align 8
  %6 = getelementptr inbounds nuw %struct.RepeatRingControl, ptr %5, i32 0, i32 0
  %7 = load i64, ptr %6, align 8
  %8 = load ptr, ptr %3, align 8
  %9 = load i32, ptr %4, align 4
  %10 = call i32 @ringOccupancy(ptr noundef %8, i32 noundef %9)
  %11 = zext i32 %10 to i64
  %12 = add i64 %7, %11
  %13 = sub i64 %12, 1
  ret i64 %13
}

; Function Attrs: nounwind uwtable
define internal i32 @ringCapacity(ptr noundef %0) #0 {
  %2 = alloca ptr, align 8
  store ptr %0, ptr %2, align 8
  %3 = load ptr, ptr %2, align 8
  %4 = getelementptr inbounds nuw %struct.RepeatInfo, ptr %3, i32 0, i32 2
  %5 = load i32, ptr %4, align 4
  %6 = add i32 %5, 1
  ret i32 %6
}

; Function Attrs: nounwind uwtable
define hidden i64 @repeatLastTopRing(ptr noundef %0, ptr noundef %1) #0 {
  %3 = alloca ptr, align 8
  %4 = alloca ptr, align 8
  %5 = alloca i32, align 4
  store ptr %0, ptr %3, align 8
  store ptr %1, ptr %4, align 8
  call void @llvm.lifetime.start.p0(i64 4, ptr %5) #7
  %6 = load ptr, ptr %3, align 8
  %7 = call i32 @ringCapacity(ptr noundef %6)
  store i32 %7, ptr %5, align 4
  %8 = load ptr, ptr %4, align 8
  %9 = load i32, ptr %5, align 4
  %10 = call i64 @ringLastTop(ptr noundef %8, i32 noundef %9)
  call void @llvm.lifetime.end.p0(i64 4, ptr %5) #7
  ret i64 %10
}