; Function Attrs: mustprogress nofree norecurse nosync nounwind willreturn memory(argmem: read) uwtable
define hidden i64 @repeatLastTopRing(ptr noundef readonly captures(none) %0, ptr noundef readonly captures(none) %1) local_unnamed_addr #0 {
  %3 = getelementptr i8, ptr %0, i64 8
  %.val = load i32, ptr %3, align 4
  %4 = add i32 %.val, 1
  %5 = load i64, ptr %1, align 8
  %6 = getelementptr i8, ptr %1, i64 8
  %.val.i = load i16, ptr %6, align 8
  %7 = getelementptr i8, ptr %1, i64 10
  %.val2.i = load i16, ptr %7, align 2
  %8 = zext i16 %.val2.i to i32
  %9 = zext i16 %.val.i to i32
  %10 = icmp ugt i16 %.val2.i, %.val.i
  %11 = sub nsw i32 %8, %9
  %12 = select i1 %10, i32 0, i32 %4
  %.0.i.i = add i32 %11, %12
  %13 = zext i32 %.0.i.i to i64
  %14 = add i64 %5, -1
  %15 = add i64 %14, %13
  ret i64 %15
}